target datalayout = "e-m:e-p270:32:32-p271:32:32-p272:64:64-i64:64-i128:128-f80:128-n8:16:32:64-S128"
target triple = "x86_64-pc-linux-gnu"

%struct.Cut_CMan_t_ = type { ptr, ptr, [10 x ptr], [9 x [16 x i32]], [22 x [16 x i32]], [22 x [16 x i32]], [22 x [16 x i32]], [16 x i32], [16 x i32], i32, i32, [10 x i32], [10 x i32], [10 x i32], i64, i64, i64, i32, i32 }
%struct.Cut_Cell_t_ = type { ptr, ptr, ptr, i32, [4 x i8], i32, [12 x i8], [18 x i16], [16 x i32] }

@s_pCMan = internal global ptr null, align 8
@.str.27 = private unnamed_addr constant [51 x i8] c"Cut_CellTruthLookup: Cell manager is not defined.\0A\00", align 1

; Function Attrs: inlinehint nounwind uwtable
define internal i32 @Extra_TruthIsEqual(ptr noundef %0, ptr noundef %1, i32 noundef %2) #5 {
  %4 = alloca i32, align 4
  %5 = alloca ptr, align 8
  %6 = alloca ptr, align 8
  %7 = alloca i32, align 4
  %8 = alloca i32, align 4
  %9 = alloca i32, align 4
  store ptr %0, ptr %5, align 8, !tbaa !29
  store ptr %1, ptr %6, align 8, !tbaa !29
  store i32 %2, ptr %7, align 4, !tbaa !12
  call void @llvm.lifetime.start.p0(i64 4, ptr %8) #9
  %10 = load i32, ptr %7, align 4, !tbaa !12
  %11 = call i32 @Extra_TruthWordNum(i32 noundef %10)
  %12 = sub nsw i32 %11, 1
  store i32 %12, ptr %8, align 4, !tbaa !12
  br label %13

13:                                               ; preds = %30, %3
  %14 = load i32, ptr %8, align 4, !tbaa !12
  %15 = icmp sge i32 %14, 0
  br i1 %15, label %16, label %33

16:                                               ; preds = %13
  %17 = load ptr, ptr %5, align 8, !tbaa !29
  %18 = load i32, ptr %8, align 4, !tbaa !12
  %19 = sext i32 %18 to i64
  %20 = getelementptr inbounds i32, ptr %17, i64 %19
  %21 = load i32, ptr %20, align 4, !tbaa !12
  %22 = load ptr, ptr %6, align 8, !tbaa !29
  %23 = load i32, ptr %8, align 4, !tbaa !12
  %24 = sext i32 %23 to i64
  %25 = getelementptr inbounds i32, ptr %22, i64 %24
  %26 = load i32, ptr %25, align 4, !tbaa !12
  %27 = icmp ne i32 %21, %26
  br i1 %27, label %28, label %29

28:                                               ; preds = %16
  store i32 0, ptr %4, align 4
  store i32 1, ptr %9, align 4
  br label %34

29:                                               ; preds = %16
  br label %30

30:                                               ; preds = %29
  %31 = load i32, ptr %8, align 4, !tbaa !12
  %32 = add nsw i32 %31, -1
  store i32 %32, ptr %8, align 4, !tbaa !12
  br label %13, !llvm.loop !106

33:                                               ; preds = %13
  store i32 1, ptr %4, align 4
  store i32 1, ptr %9, align 4
  br label %34

34:                                               ; preds = %33, %28
  call void @llvm.lifetime.end.p0(i64 4, ptr %8) #9
  %35 = load i32, ptr %4, align 4
  ret i32 %35
}

; Function Attrs: inlinehint nounwind uwtable
define internal i32 @Extra_TruthWordNum(i32 noundef %0) #5 {
  %2 = alloca i32, align 4
  store i32 %0, ptr %2, align 4, !tbaa !12
  %3 = load i32, ptr %2, align 4, !tbaa !12
  %4 = icmp sle i32 %3, 5
  br i1 %4, label %5, label %6

5:                                                ; preds = %1
  br label %10

6:                                                ; preds = %1
  %7 = load i32, ptr %2, align 4, !tbaa !12
  %8 = sub nsw i32 %7, 5
  %9 = shl i32 1, %8
  br label %10

10:                                               ; preds = %6, %5
  %11 = phi i32 [ 1, %5 ], [ %9, %6 ]
  ret i32 %11
}

; Function Attrs: inlinehint nounwind uwtable
define internal void @Extra_TruthCopy(ptr noundef %0, ptr noundef %1, i32 noundef %2) #5 {
  %4 = alloca ptr, align 8
  %5 = alloca ptr, align 8
  %6 = alloca i32, align 4
  %7 = alloca i32, align 4
  store ptr %0, ptr %4, align 8, !tbaa !29
  store ptr %1, ptr %5, align 8, !tbaa !29
  store i32 %2, ptr %6, align 4, !tbaa !12
  call void @llvm.lifetime.start.p0(i64 4, ptr %7) #9
  %8 = load i32, ptr %6, align 4, !tbaa !12
  %9 = call i32 @Extra_TruthWordNum(i32 noundef %8)
  %10 = sub nsw i32 %9, 1
  store i32 %10, ptr %7, align 4, !tbaa !12
  br label %11

11:                                               ; preds = %24, %3
  %12 = load i32, ptr %7, align 4, !tbaa !12
  %13 = icmp sge i32 %12, 0
  br i1 %13, label %14, label %27

14:                                               ; preds = %11
  %15 = load ptr, ptr %5, align 8, !tbaa !29
  %16 = load i32, ptr %7, align 4, !tbaa !12
  %17 = sext i32 %16 to i64
  %18 = getelementptr inbounds i32, ptr %15, i64 %17
  %19 = load i32, ptr %18, align 4, !tbaa !12
  %20 = load ptr, ptr %4, align 8, !tbaa !29
  %21 = load i32, ptr %7, align 4, !tbaa !12
  %22 = sext i32 %21 to i64
  %23 = getelementptr inbounds i32, ptr %20, i64 %22
  store i32 %19, ptr %23, align 4, !tbaa !12
  br label %24

24:                                               ; preds = %14
  %25 = load i32, ptr %7, align 4, !tbaa !12
  %26 = add nsw i32 %25, -1
  store i32 %26, ptr %7, align 4, !tbaa !12
  br label %11, !llvm.loop !92

27:                                               ; preds = %11
  call void @llvm.lifetime.end.p0(i64 4, ptr %7) #9
  ret void
}

; Function Attrs: nounwind uwtable
define i32 @Cut_CellTruthLookup(ptr noundef %0, i32 noundef %1) #0 {
  %3 = alloca i32, align 4
  %4 = alloca ptr, align 8
  %5 = alloca i32, align 4
  %6 = alloca ptr, align 8
  %7 = alloca ptr, align 8
  %8 = alloca %struct.Cut_Cell_t_, align 8
  %9 = alloca ptr, align 8
  %10 = alloca i32, align 4
  %11 = alloca i32, align 4
  %12 = alloca i32, align 4
  store ptr %0, ptr %4, align 8, !tbaa !29
  store i32 %1, ptr %5, align 4, !tbaa !12
  call void @llvm.lifetime.start.p0(i64 8, ptr %6) #9
  %13 = load ptr, ptr @s_pCMan, align 8, !tbaa !10
  store ptr %13, ptr %6, align 8, !tbaa !10
  call void @llvm.lifetime.start.p0(i64 8, ptr %7) #9
  call void @llvm.lifetime.start.p0(i64 152, ptr %8) #9
  call void @llvm.lifetime.start.p0(i64 8, ptr %9) #9
  store ptr %8, ptr %9, align 8, !tbaa !22
  call void @llvm.lifetime.start.p0(i64 4, ptr %10) #9
  call void @llvm.lifetime.start.p0(i64 4, ptr %11) #9
  %14 = load ptr, ptr %6, align 8, !tbaa !10
  %15 = icmp eq ptr %14, null
  br i1 %15, label %16, label %18

16:                                               ; preds = %2
  %17 = call i32 (ptr, ...) @printf(ptr noundef @.str.27)
  store i32 0, ptr %3, align 4
  store i32 1, ptr %12, align 4
  br label %141

18:                                               ; preds = %2
  %19 = load ptr, ptr %9, align 8, !tbaa !22
  call void @llvm.memset.p0.i64(ptr align 8 %19, i8 0, i64 152, i1 false)
  %20 = load i32, ptr %5, align 4, !tbaa !12
  %21 = load ptr, ptr %9, align 8, !tbaa !22
  %22 = getelementptr inbounds nuw %struct.Cut_Cell_t_, ptr %21, i32 0, i32 5
  %23 = load i32, ptr %22, align 8
  %24 = and i32 %20, 15
  %25 = and i32 %23, -16
  %26 = or i32 %25, %24
  store i32 %26, ptr %22, align 8
  %27 = load ptr, ptr %9, align 8, !tbaa !22
  %28 = getelementptr inbounds nuw %struct.Cut_Cell_t_, ptr %27, i32 0, i32 8
  %29 = getelementptr inbounds [16 x i32], ptr %28, i64 0, i64 0
  %30 = load ptr, ptr %4, align 8, !tbaa !29
  %31 = load i32, ptr %5, align 4, !tbaa !12
  call void @Extra_TruthCopy(ptr noundef %29, ptr noundef %30, i32 noundef %31)
  %32 = load ptr, ptr %9, align 8, !tbaa !22
  call void @Cut_CellSuppMin(ptr noundef %32)
  store i32 0, ptr %11, align 4, !tbaa !12
  br label %33

33:                                               ; preds = %48, %18
  %34 = load i32, ptr %11, align 4, !tbaa !12
  %35 = load ptr, ptr %9, align 8, !tbaa !22
  %36 = getelementptr inbounds nuw %struct.Cut_Cell_t_, ptr %35, i32 0, i32 5
  %37 = load i32, ptr %36, align 8
  %38 = and i32 %37, 15
  %39 = icmp slt i32 %34, %38
  br i1 %39, label %40, label %51

40:                                               ; preds = %33
  %41 = load i32, ptr %11, align 4, !tbaa !12
  %42 = trunc i32 %41 to i8
  %43 = load ptr, ptr %9, align 8, !tbaa !22
  %44 = getelementptr inbounds nuw %struct.Cut_Cell_t_, ptr %43, i32 0, i32 6
  %45 = load i32, ptr %11, align 4, !tbaa !12
  %46 = sext i32 %45 to i64
  %47 = getelementptr inbounds [12 x i8], ptr %44, i64 0, i64 %46
  store i8 %42, ptr %47, align 1, !tbaa !14
  br label %48

48:                                               ; preds = %40
  %49 = load i32, ptr %11, align 4, !tbaa !12
  %50 = add nsw i32 %49, 1
  store i32 %50, ptr %11, align 4, !tbaa !12
  br label %33, !llvm.loop !104

51:                                               ; preds = %33
  %52 = load ptr, ptr %9, align 8, !tbaa !22
  %53 = getelementptr inbounds nuw %struct.Cut_Cell_t_, ptr %52, i32 0, i32 8
  %54 = getelementptr inbounds [16 x i32], ptr %53, i64 0, i64 0
  %55 = load ptr, ptr %6, align 8, !tbaa !10
  %56 = getelementptr inbounds nuw %struct.Cut_CMan_t_, ptr %55, i32 0, i32 8
  %57 = getelementptr inbounds [16 x i32], ptr %56, i64 0, i64 0
  %58 = load ptr, ptr %9, align 8, !tbaa !22
  %59 = getelementptr inbounds nuw %struct.Cut_Cell_t_, ptr %58, i32 0, i32 5
  %60 = load i32, ptr %59, align 8
  %61 = and i32 %60, 15
  %62 = load ptr, ptr %9, align 8, !tbaa !22
  %63 = getelementptr inbounds nuw %struct.Cut_Cell_t_, ptr %62, i32 0, i32 6
  %64 = getelementptr inbounds [12 x i8], ptr %63, i64 0, i64 0
  %65 = load ptr, ptr %9, align 8, !tbaa !22
  %66 = getelementptr inbounds nuw %struct.Cut_Cell_t_, ptr %65, i32 0, i32 7
  %67 = getelementptr inbounds [18 x i16], ptr %66, i64 0, i64 0
  %68 = call i32 @Extra_TruthSemiCanonicize(ptr noundef %54, ptr noundef %57, i32 noundef %61, ptr noundef %64, ptr noundef %67)
  %69 = load ptr, ptr %9, align 8, !tbaa !22
  %70 = getelementptr inbounds nuw %struct.Cut_Cell_t_, ptr %69, i32 0, i32 5
  %71 = load i32, ptr %70, align 8
  %72 = and i32 %68, 262143
  %73 = shl i32 %72, 14
  %74 = and i32 %71, 16383
  %75 = or i32 %74, %73
  store i32 %75, ptr %70, align 8
  %76 = load ptr, ptr %9, align 8, !tbaa !22
  %77 = getelementptr inbounds nuw %struct.Cut_Cell_t_, ptr %76, i32 0, i32 8
  %78 = getelementptr inbounds [16 x i32], ptr %77, i64 0, i64 0
  %79 = load ptr, ptr %9, align 8, !tbaa !22
  %80 = getelementptr inbounds nuw %struct.Cut_Cell_t_, ptr %79, i32 0, i32 5
  %81 = load i32, ptr %80, align 8
  %82 = and i32 %81, 15
  %83 = call i32 @Extra_TruthWordNum(i32 noundef %82)
  %84 = call i32 @Extra_TruthHash(ptr noundef %78, i32 noundef %83)
  store i32 %84, ptr %10, align 4, !tbaa !12
  %85 = load ptr, ptr %6, align 8, !tbaa !10
  %86 = getelementptr inbounds nuw %struct.Cut_CMan_t_, ptr %85, i32 0, i32 1
  %87 = load ptr, ptr %86, align 8, !tbaa !33
  %88 = load i32, ptr %10, align 4, !tbaa !12
  %89 = zext i32 %88 to i64
  %90 = inttoptr i64 %89 to ptr
  %91 = call i32 @st__lookup(ptr noundef %87, ptr noundef %90, ptr noundef %7)
  %92 = icmp ne i32 %91, 0
  br i1 %92, label %93, label %136

93:                                               ; preds = %51
  br label %94

94:                                               ; preds = %131, %93
  %95 = load ptr, ptr %7, align 8, !tbaa !22
  %96 = icmp ne ptr %95, null
  br i1 %96, label %97, label %135

97:                                               ; preds = %94
  %98 = load ptr, ptr %7, align 8, !tbaa !22
  %99 = getelementptr inbounds nuw %struct.Cut_Cell_t_, ptr %98, i32 0, i32 5
  %100 = load i32, ptr %99, align 8
  %101 = and i32 %100, 15
  %102 = load ptr, ptr %9, align 8, !tbaa !22
  %103 = getelementptr inbounds nuw %struct.Cut_Cell_t_, ptr %102, i32 0, i32 5
  %104 = load i32, ptr %103, align 8
  %105 = and i32 %104, 15
  %106 = icmp ne i32 %101, %105
  br i1 %106, label %107, label %108

107:                                              ; preds = %97
  br label %131

108:                                              ; preds = %97
  %109 = load ptr, ptr %7, align 8, !tbaa !22
  %110 = getelementptr inbounds nuw %struct.Cut_Cell_t_, ptr %109, i32 0, i32 8
  %111 = getelementptr inbounds [16 x i32], ptr %110, i64 0, i64 0
  %112 = load ptr, ptr %9, align 8, !tbaa !22
  %113 = getelementptr inbounds nuw %struct.Cut_Cell_t_, ptr %112, i32 0, i32 8
  %114 = getelementptr inbounds [16 x i32], ptr %113, i64 0, i64 0
  %115 = load ptr, ptr %9, align 8, !tbaa !22
  %116 = getelementptr inbounds nuw %struct.Cut_Cell_t_, ptr %115, i32 0, i32 5
  %117 = load i32, ptr %116, align 8
  %118 = and i32 %117, 15
  %119 = call i32 @Extra_TruthIsEqual(ptr noundef %111, ptr noundef %114, i32 noundef %118)
  %120 = icmp ne i32 %119, 0
  br i1 %120, label %121, label %130

121:                                              ; preds = %108
  %122 = load ptr, ptr %7, align 8, !tbaa !22
  %123 = getelementptr inbounds nuw %struct.Cut_Cell_t_, ptr %122, i32 0, i32 3
  %124 = load i32, ptr %123, align 8, !tbaa !24
  %125 = add nsw i32 %124, 1
  store i32 %125, ptr %123, align 8, !tbaa !24
  %126 = load ptr, ptr %6, align 8, !tbaa !10
  %127 = getelementptr inbounds nuw %struct.Cut_CMan_t_, ptr %126, i32 0, i32 17
  %128 = load i32, ptr %127, align 8, !tbaa !96
  %129 = add nsw i32 %128, 1
  store i32 %129, ptr %127, align 8, !tbaa !96
  store i32 1, ptr %3, align 4
  store i32 1, ptr %12, align 4
  br label %141

130:                                              ; preds = %108
  br label %131

131:                                              ; preds = %130, %107
  %132 = load ptr, ptr %7, align 8, !tbaa !22
  %133 = getelementptr inbounds nuw %struct.Cut_Cell_t_, ptr %132, i32 0, i32 0
  %134 = load ptr, ptr %133, align 8, !tbaa !36
  store ptr %134, ptr %7, align 8, !tbaa !22
  br label %94, !llvm.loop !105

135:                                              ; preds = %94
  br label %136

136:                                              ; preds = %135, %51
  %137 = load ptr, ptr %6, align 8, !tbaa !10
  %138 = getelementptr inbounds nuw %struct.Cut_CMan_t_, ptr %137, i32 0, i32 18
  %139 = load i32, ptr %138, align 4, !tbaa !97
  %140 = add nsw i32 %139, 1
  store i32 %140, ptr %138, align 4, !tbaa !97
  store i32 0, ptr %3, align 4
  store i32 1, ptr %12, align 4
  br label %141

141:                                              ; preds = %136, %121, %16
  call void @llvm.lifetime.end.p0(i64 4, ptr %11) #9
  call void @llvm.lifetime.end.p0(i64 4, ptr %10) #9
  call void @llvm.lifetime.end.p0(i64 8, ptr %9) #9
  call void @llvm.lifetime.end.p0(i64 152, ptr %8) #9
  call void @llvm.lifetime.end.p0(i64 8, ptr %7) #9
  call void @llvm.lifetime.end.p0(i64 8, ptr %6) #9
  %142 = load i32, ptr %3, align 4
  ret i32 %142
}