; Function Attrs: nounwind uwtable
define range(i32 0, 2) i32 @Cut_CellTruthLookup(ptr noundef readonly captures(none) %0, i32 noundef %1) local_unnamed_addr #0 {
  %3 = alloca ptr, align 8
  %4 = alloca %struct.Cut_Cell_t_, align 8
  %5 = load ptr, ptr @s_pCMan, align 8, !tbaa !17
  call void @llvm.lifetime.start.p0(i64 8, ptr nonnull %3) #16
  call void @llvm.lifetime.start.p0(i64 152, ptr nonnull %4) #16
  %6 = icmp eq ptr %5, null
  br i1 %6, label %7, label %8

7:                                                ; preds = %2
  %puts = tail call i32 @puts(ptr nonnull dereferenceable(1) @str.3)
  br label %75

8:                                                ; preds = %2
  call void @llvm.memset.p0.i64(ptr noundef nonnull align 8 dereferenceable(152) %4, i8 0, i64 152, i1 false)
  %9 = getelementptr inbounds nuw i8, ptr %4, i64 32
  %10 = and i32 %1, 15
  store i32 %10, ptr %9, align 8
  %11 = getelementptr inbounds nuw i8, ptr %4, i64 84
  %12 = icmp slt i32 %1, 6
  %13 = add nsw i32 %1, -5
  %14 = shl nuw i32 1, %13
  %spec.select.i = select i1 %12, i32 1, i32 %14
  %15 = icmp sgt i32 %spec.select.i, 0
  br i1 %15, label %select.unfold.preheader.i, label %Extra_TruthCopy.exit

select.unfold.preheader.i:                        ; preds = %8
  %16 = zext nneg i32 %spec.select.i to i64
  %17 = shl nuw nsw i64 %16, 2
  call void @llvm.memcpy.p0.p0.i64(ptr noundef nonnull align 4 dereferenceable(1) %11, ptr noundef nonnull align 4 dereferenceable(1) %0, i64 %17, i1 false), !tbaa !13
  br label %Extra_TruthCopy.exit

Extra_TruthCopy.exit:                             ; preds = %select.unfold.preheader.i, %8
  call fastcc void @Cut_CellSuppMin(ptr noundef nonnull %4)
  %18 = load i32, ptr %9, align 8
  %19 = and i32 %18, 15
  %.not44 = icmp eq i32 %19, 0
  br i1 %.not44, label %._crit_edge, label %.lr.ph

.lr.ph:                                           ; preds = %Extra_TruthCopy.exit
  %20 = getelementptr inbounds nuw i8, ptr %4, i64 36
  %wide.trip.count = zext nneg i32 %19 to i64
  br label %21

21:                                               ; preds = %.lr.ph, %21
  %indvars.iv = phi i64 [ 0, %.lr.ph ], [ %indvars.iv.next, %21 ]
  %22 = trunc i64 %indvars.iv to i8
  %23 = getelementptr inbounds nuw [12 x i8], ptr %20, i64 0, i64 %indvars.iv
  store i8 %22, ptr %23, align 1, !tbaa !19
  %indvars.iv.next = add nuw nsw i64 %indvars.iv, 1
  %exitcond.not = icmp eq i64 %indvars.iv.next, %wide.trip.count
  br i1 %exitcond.not, label %._crit_edge, label %21, !llvm.loop !107

._crit_edge:                                      ; preds = %21, %Extra_TruthCopy.exit
  %24 = getelementptr inbounds nuw i8, ptr %5, i64 4960
  %25 = getelementptr inbounds nuw i8, ptr %4, i64 36
  %26 = getelementptr inbounds nuw i8, ptr %4, i64 48
  %27 = call i32 @Extra_TruthSemiCanonicize(ptr noundef nonnull %11, ptr noundef nonnull %24, i32 noundef %19, ptr noundef nonnull %25, ptr noundef nonnull %26) #16
  %28 = load i32, ptr %9, align 8
  %29 = shl i32 %27, 14
  %30 = and i32 %28, 16383
  %31 = or disjoint i32 %30, %29
  store i32 %31, ptr %9, align 8
  %32 = and i32 %28, 15
  %33 = icmp samesign ult i32 %32, 6
  %34 = add nsw i32 %32, -5
  %35 = shl nuw nsw i32 1, %34
  %36 = select i1 %33, i32 1, i32 %35
  %37 = call i32 @Extra_TruthHash(ptr noundef nonnull %11, i32 noundef %36) #16
  %38 = getelementptr inbounds nuw i8, ptr %5, i64 8
  %39 = load ptr, ptr %38, align 8, !tbaa !3
  %40 = zext i32 %37 to i64
  %41 = inttoptr i64 %40 to ptr
  %42 = call i32 @st__lookup(ptr noundef %39, ptr noundef %41, ptr noundef nonnull %3) #16
  %43 = icmp ne i32 %42, 0
  %44 = load ptr, ptr %3, align 8
  %45 = icmp ne ptr %44, null
  %or.cond = select i1 %43, i1 %45, i1 false
  br i1 %or.cond, label %.preheader, label %.loopexit

.preheader:                                       ; preds = %._crit_edge
  %46 = load i32, ptr %9, align 8
  %47 = and i32 %46, 15
  %48 = icmp samesign ult i32 %47, 6
  %49 = add nsw i32 %47, -5
  %50 = shl nuw nsw i32 1, %49
  %spec.select.i35 = select i1 %48, i32 1, i32 %50
  %51 = zext nneg i32 %spec.select.i35 to i64
  br label %52

52:                                               ; preds = %.preheader, %Extra_TruthIsEqual.exit.thread
  %53 = phi ptr [ %44, %.preheader ], [ %71, %Extra_TruthIsEqual.exit.thread ]
  %54 = getelementptr inbounds nuw i8, ptr %53, i64 32
  %55 = load i32, ptr %54, align 8
  %56 = and i32 %55, 15
  %.not = icmp eq i32 %56, %47
  br i1 %.not, label %57, label %Extra_TruthIsEqual.exit.thread

57:                                               ; preds = %52
  %58 = getelementptr inbounds nuw i8, ptr %53, i64 84
  br label %select.unfold.i36

select.unfold.i36:                                ; preds = %60, %57
  %indvars.iv.i37 = phi i64 [ %51, %57 ], [ %indvars.iv.next.i38, %60 ]
  %59 = icmp sgt i64 %indvars.iv.i37, 0
  br i1 %59, label %60, label %Extra_TruthIsEqual.exit

60:                                               ; preds = %select.unfold.i36
  %indvars.iv.next.i38 = add nsw i64 %indvars.iv.i37, -1
  %61 = getelementptr inbounds nuw i32, ptr %58, i64 %indvars.iv.next.i38
  %62 = load i32, ptr %61, align 4, !tbaa !13
  %63 = getelementptr inbounds nuw i32, ptr %11, i64 %indvars.iv.next.i38
  %64 = load i32, ptr %63, align 4, !tbaa !13
  %.not.i = icmp eq i32 %62, %64
  br i1 %.not.i, label %select.unfold.i36, label %Extra_TruthIsEqual.exit.thread, !llvm.loop !32

Extra_TruthIsEqual.exit:                          ; preds = %select.unfold.i36
  %65 = getelementptr inbounds nuw i8, ptr %53, i64 24
  %66 = load i32, ptr %65, align 8, !tbaa !20
  %67 = add nsw i32 %66, 1
  store i32 %67, ptr %65, align 8, !tbaa !20
  %68 = getelementptr inbounds nuw i8, ptr %5, i64 5176
  %69 = load i32, ptr %68, align 8, !tbaa !97
  %70 = add nsw i32 %69, 1
  store i32 %70, ptr %68, align 8, !tbaa !97
  br label %75

Extra_TruthIsEqual.exit.thread:                   ; preds = %60, %52
  %71 = load ptr, ptr %53, align 8, !tbaa !34
  store ptr %71, ptr %3, align 8, !tbaa !31
  %.old1.not = icmp eq ptr %71, null
  br i1 %.old1.not, label %.loopexit, label %52

.loopexit:                                        ; preds = %Extra_TruthIsEqual.exit.thread, %._crit_edge
  %72 = getelementptr inbounds nuw i8, ptr %5, i64 5180
  %73 = load i32, ptr %72, align 4, !tbaa !98
  %74 = add nsw i32 %73, 1
  store i32 %74, ptr %72, align 4, !tbaa !98
  br label %75

75:                                               ; preds = %.loopexit, %Extra_TruthIsEqual.exit, %7
  %.030 = phi i32 [ 0, %7 ], [ 0, %.loopexit ], [ 1, %Extra_TruthIsEqual.exit ]
  call void @llvm.lifetime.end.p0(i64 152, ptr nonnull %4) #16
  call void @llvm.lifetime.end.p0(i64 8, ptr nonnull %3) #16
  ret i32 %.030
}